; Function Attrs: mustprogress nofree nounwind willreturn memory(write, argmem: readwrite) uwtable
define noundef range(i32 -2147483647, -2147483648) i32 @_ZNK10open_spiel11negotiation15NegotiationGame20NumDistinctProposalsEv(ptr nocapture noundef nonnull readonly align 8 dereferenceable(336) %0) local_unnamed_addr #5 align 2 {
  %2 = getelementptr inbounds nuw i8, ptr %0, i64 284
  %3 = load i32, ptr %2, align 4
  %4 = sitofp i32 %3 to double
  %5 = tail call noundef double @pow(double noundef 6.000000e+00, double noundef %4) #32
  %6 = fptosi double %5 to i32
  %7 = add nsw i32 %6, 1
  ret i32 %7
}